target datalayout = "e-m:e-p270:32:32-p271:32:32-p272:64:64-i64:64-i128:128-f80:128-n8:16:32:64-S128"
target triple = "x86_64-pc-linux-gnu"

%struct.PHP_XXH32_CTX = type { %struct.XXH_NAMESPACEXXH32_state_s }
%struct.XXH_NAMESPACEXXH32_state_s = type { i32, i32, [4 x i32], [4 x i32], i32, i32 }

; Function Attrs: nounwind uwtable
define internal i32 @XXH_read32(ptr noundef %0) #0 {
  %2 = alloca ptr, align 8
  %3 = alloca i32, align 4
  store ptr %0, ptr %2, align 8, !tbaa !4
  call void @llvm.lifetime.start.p0(i64 4, ptr %3) #14
  %4 = load ptr, ptr %2, align 8, !tbaa !4
  %5 = call ptr @XXH_memcpy(ptr noundef %3, ptr noundef %4, i64 noundef 4)
  %6 = load i32, ptr %3, align 4, !tbaa !20
  call void @llvm.lifetime.end.p0(i64 4, ptr %3) #14
  ret i32 %6
}

; Function Attrs: alwaysinline nounwind uwtable
define internal i32 @XXH_readLE32(ptr noundef %0) #4 {
  %2 = alloca ptr, align 8
  store ptr %0, ptr %2, align 8, !tbaa !4
  %3 = load ptr, ptr %2, align 8, !tbaa !4
  %4 = call i32 @XXH_read32(ptr noundef %3)
  ret i32 %4
}

; Function Attrs: nounwind uwtable
define internal i32 @XXH32_avalanche(i32 noundef %0) #0 {
  %2 = alloca i32, align 4
  store i32 %0, ptr %2, align 4, !tbaa !20
  %3 = load i32, ptr %2, align 4, !tbaa !20
  %4 = lshr i32 %3, 15
  %5 = load i32, ptr %2, align 4, !tbaa !20
  %6 = xor i32 %5, %4
  store i32 %6, ptr %2, align 4, !tbaa !20
  %7 = load i32, ptr %2, align 4, !tbaa !20
  %8 = mul i32 %7, -2048144777
  store i32 %8, ptr %2, align 4, !tbaa !20
  %9 = load i32, ptr %2, align 4, !tbaa !20
  %10 = lshr i32 %9, 13
  %11 = load i32, ptr %2, align 4, !tbaa !20
  %12 = xor i32 %11, %10
  store i32 %12, ptr %2, align 4, !tbaa !20
  %13 = load i32, ptr %2, align 4, !tbaa !20
  %14 = mul i32 %13, -1028477379
  store i32 %14, ptr %2, align 4, !tbaa !20
  %15 = load i32, ptr %2, align 4, !tbaa !20
  %16 = lshr i32 %15, 16
  %17 = load i32, ptr %2, align 4, !tbaa !20
  %18 = xor i32 %17, %16
  store i32 %18, ptr %2, align 4, !tbaa !20
  %19 = load i32, ptr %2, align 4, !tbaa !20
  ret i32 %19
}

; Function Attrs: alwaysinline nounwind uwtable
define internal i32 @XXH_readLE32_align(ptr noundef %0, i32 noundef %1) #4 {
  %3 = alloca i32, align 4
  %4 = alloca ptr, align 8
  %5 = alloca i32, align 4
  store ptr %0, ptr %4, align 8, !tbaa !4
  store i32 %1, ptr %5, align 4, !tbaa !20
  %6 = load i32, ptr %5, align 4, !tbaa !20
  %7 = icmp eq i32 %6, 1
  br i1 %7, label %8, label %11

8:                                                ; preds = %2
  %9 = load ptr, ptr %4, align 8, !tbaa !4
  %10 = call i32 @XXH_readLE32(ptr noundef %9)
  store i32 %10, ptr %3, align 4
  br label %14

11:                                               ; preds = %2
  %12 = load ptr, ptr %4, align 8, !tbaa !4
  %13 = load i32, ptr %12, align 4, !tbaa !20
  store i32 %13, ptr %3, align 4
  br label %14

14:                                               ; preds = %11, %8
  %15 = load i32, ptr %3, align 4
  ret i32 %15
}

; Function Attrs: nounwind uwtable
define internal ptr @XXH_memcpy(ptr noundef %0, ptr noundef %1, i64 noundef %2) #0 {
  %4 = alloca ptr, align 8
  %5 = alloca ptr, align 8
  %6 = alloca i64, align 8
  store ptr %0, ptr %4, align 8, !tbaa !4
  store ptr %1, ptr %5, align 8, !tbaa !4
  store i64 %2, ptr %6, align 8, !tbaa !15
  %7 = load ptr, ptr %4, align 8, !tbaa !4
  %8 = load ptr, ptr %5, align 8, !tbaa !4
  %9 = load i64, ptr %6, align 8, !tbaa !15
  call void @llvm.memcpy.p0.p0.i64(ptr align 1 %7, ptr align 1 %8, i64 %9, i1 false)
  ret ptr %7
}

; Function Attrs: nounwind uwtable
define internal i32 @XXH_swap32(i32 noundef %0) #0 {
  %2 = alloca i32, align 4
  store i32 %0, ptr %2, align 4, !tbaa !20
  %3 = load i32, ptr %2, align 4, !tbaa !20
  %4 = shl i32 %3, 24
  %5 = and i32 %4, -16777216
  %6 = load i32, ptr %2, align 4, !tbaa !20
  %7 = shl i32 %6, 8
  %8 = and i32 %7, 16711680
  %9 = or i32 %5, %8
  %10 = load i32, ptr %2, align 4, !tbaa !20
  %11 = lshr i32 %10, 8
  %12 = and i32 %11, 65280
  %13 = or i32 %9, %12
  %14 = load i32, ptr %2, align 4, !tbaa !20
  %15 = lshr i32 %14, 24
  %16 = and i32 %15, 255
  %17 = or i32 %13, %16
  ret i32 %17
}

; Function Attrs: nounwind uwtable
define internal i32 @XXH32_finalize(i32 noundef %0, ptr noundef %1, i64 noundef %2, i32 noundef %3) #0 {
  %5 = alloca i32, align 4
  %6 = alloca ptr, align 8
  %7 = alloca i64, align 8
  %8 = alloca i32, align 4
  store i32 %0, ptr %5, align 4, !tbaa !20
  store ptr %1, ptr %6, align 8, !tbaa !13
  store i64 %2, ptr %7, align 8, !tbaa !15
  store i32 %3, ptr %8, align 4, !tbaa !20
  %9 = load ptr, ptr %6, align 8, !tbaa !13
  %10 = icmp eq ptr %9, null
  br i1 %10, label %11, label %12

11:                                               ; preds = %4
  br label %12

12:                                               ; preds = %11, %4
  %13 = load i64, ptr %7, align 8, !tbaa !15
  %14 = and i64 %13, 15
  store i64 %14, ptr %7, align 8, !tbaa !15
  br label %15

15:                                               ; preds = %31, %12
  %16 = load i64, ptr %7, align 8, !tbaa !15
  %17 = icmp uge i64 %16, 4
  br i1 %17, label %18, label %34

18:                                               ; preds = %15
  br label %19

19:                                               ; preds = %18
  %20 = load ptr, ptr %6, align 8, !tbaa !13
  %21 = load i32, ptr %8, align 4, !tbaa !20
  %22 = call i32 @XXH_readLE32_align(ptr noundef %20, i32 noundef %21)
  %23 = mul i32 %22, -1028477379
  %24 = load i32, ptr %5, align 4, !tbaa !20
  %25 = add i32 %24, %23
  store i32 %25, ptr %5, align 4, !tbaa !20
  %26 = load ptr, ptr %6, align 8, !tbaa !13
  %27 = getelementptr inbounds i8, ptr %26, i64 4
  store ptr %27, ptr %6, align 8, !tbaa !13
  %28 = load i32, ptr %5, align 4, !tbaa !20
  %29 = call i32 @llvm.fshl.i32(i32 %28, i32 %28, i32 17)
  %30 = mul i32 %29, 668265263
  store i32 %30, ptr %5, align 4, !tbaa !20
  br label %31

31:                                               ; preds = %19
  %32 = load i64, ptr %7, align 8, !tbaa !15
  %33 = sub i64 %32, 4
  store i64 %33, ptr %7, align 8, !tbaa !15
  br label %15

34:                                               ; preds = %15
  br label %35

35:                                               ; preds = %50, %34
  %36 = load i64, ptr %7, align 8, !tbaa !15
  %37 = icmp ugt i64 %36, 0
  br i1 %37, label %38, label %53

38:                                               ; preds = %35
  br label %39

39:                                               ; preds = %38
  %40 = load ptr, ptr %6, align 8, !tbaa !13
  %41 = getelementptr inbounds nuw i8, ptr %40, i32 1
  store ptr %41, ptr %6, align 8, !tbaa !13
  %42 = load i8, ptr %40, align 1, !tbaa !12
  %43 = zext i8 %42 to i32
  %44 = mul i32 %43, 374761393
  %45 = load i32, ptr %5, align 4, !tbaa !20
  %46 = add i32 %45, %44
  store i32 %46, ptr %5, align 4, !tbaa !20
  %47 = load i32, ptr %5, align 4, !tbaa !20
  %48 = call i32 @llvm.fshl.i32(i32 %47, i32 %47, i32 11)
  %49 = mul i32 %48, -1640531535
  store i32 %49, ptr %5, align 4, !tbaa !20
  br label %50

50:                                               ; preds = %39
  %51 = load i64, ptr %7, align 8, !tbaa !15
  %52 = add i64 %51, -1
  store i64 %52, ptr %7, align 8, !tbaa !15
  br label %35

53:                                               ; preds = %35
  %54 = load i32, ptr %5, align 4, !tbaa !20
  %55 = call i32 @XXH32_avalanche(i32 noundef %54)
  ret i32 %55
}

; Function Attrs: inlinehint nounwind uwtable
define internal void @XXH_INLINE_XXH32_canonicalFromHash(ptr noundef %0, i32 noundef %1) #5 {
  %3 = alloca ptr, align 8
  %4 = alloca i32, align 4
  store ptr %0, ptr %3, align 8, !tbaa !4
  store i32 %1, ptr %4, align 4, !tbaa !20
  br label %5

5:                                                ; preds = %2
  br label %6

6:                                                ; preds = %5
  %7 = load i32, ptr %4, align 4, !tbaa !20
  %8 = call i32 @XXH_swap32(i32 noundef %7)
  store i32 %8, ptr %4, align 4, !tbaa !20
  %9 = load ptr, ptr %3, align 8, !tbaa !4
  %10 = call ptr @XXH_memcpy(ptr noundef %9, ptr noundef %4, i64 noundef 4)
  ret void
}

; Function Attrs: inlinehint nounwind uwtable
define internal i32 @XXH_INLINE_XXH32_digest(ptr noundef %0) #5 {
  %2 = alloca ptr, align 8
  %3 = alloca i32, align 4
  store ptr %0, ptr %2, align 8, !tbaa !33
  call void @llvm.lifetime.start.p0(i64 4, ptr %3) #14
  %4 = load ptr, ptr %2, align 8, !tbaa !33
  %5 = getelementptr inbounds nuw %struct.XXH_NAMESPACEXXH32_state_s, ptr %4, i32 0, i32 1
  %6 = load i32, ptr %5, align 4, !tbaa !36
  %7 = icmp ne i32 %6, 0
  br i1 %7, label %8, label %32

8:                                                ; preds = %1
  %9 = load ptr, ptr %2, align 8, !tbaa !33
  %10 = getelementptr inbounds nuw %struct.XXH_NAMESPACEXXH32_state_s, ptr %9, i32 0, i32 2
  %11 = getelementptr inbounds [4 x i32], ptr %10, i64 0, i64 0
  %12 = load i32, ptr %11, align 4, !tbaa !20
  %13 = call i32 @llvm.fshl.i32(i32 %12, i32 %12, i32 1)
  %14 = load ptr, ptr %2, align 8, !tbaa !33
  %15 = getelementptr inbounds nuw %struct.XXH_NAMESPACEXXH32_state_s, ptr %14, i32 0, i32 2
  %16 = getelementptr inbounds [4 x i32], ptr %15, i64 0, i64 1
  %17 = load i32, ptr %16, align 4, !tbaa !20
  %18 = call i32 @llvm.fshl.i32(i32 %17, i32 %17, i32 7)
  %19 = add i32 %13, %18
  %20 = load ptr, ptr %2, align 8, !tbaa !33
  %21 = getelementptr inbounds nuw %struct.XXH_NAMESPACEXXH32_state_s, ptr %20, i32 0, i32 2
  %22 = getelementptr inbounds [4 x i32], ptr %21, i64 0, i64 2
  %23 = load i32, ptr %22, align 4, !tbaa !20
  %24 = call i32 @llvm.fshl.i32(i32 %23, i32 %23, i32 12)
  %25 = add i32 %19, %24
  %26 = load ptr, ptr %2, align 8, !tbaa !33
  %27 = getelementptr inbounds nuw %struct.XXH_NAMESPACEXXH32_state_s, ptr %26, i32 0, i32 2
  %28 = getelementptr inbounds [4 x i32], ptr %27, i64 0, i64 3
  %29 = load i32, ptr %28, align 4, !tbaa !20
  %30 = call i32 @llvm.fshl.i32(i32 %29, i32 %29, i32 18)
  %31 = add i32 %25, %30
  store i32 %31, ptr %3, align 4, !tbaa !20
  br label %38

32:                                               ; preds = %1
  %33 = load ptr, ptr %2, align 8, !tbaa !33
  %34 = getelementptr inbounds nuw %struct.XXH_NAMESPACEXXH32_state_s, ptr %33, i32 0, i32 2
  %35 = getelementptr inbounds [4 x i32], ptr %34, i64 0, i64 2
  %36 = load i32, ptr %35, align 4, !tbaa !20
  %37 = add i32 %36, 374761393
  store i32 %37, ptr %3, align 4, !tbaa !20
  br label %38

38:                                               ; preds = %32, %8
  %39 = load ptr, ptr %2, align 8, !tbaa !33
  %40 = getelementptr inbounds nuw %struct.XXH_NAMESPACEXXH32_state_s, ptr %39, i32 0, i32 0
  %41 = load i32, ptr %40, align 4, !tbaa !35
  %42 = load i32, ptr %3, align 4, !tbaa !20
  %43 = add i32 %42, %41
  store i32 %43, ptr %3, align 4, !tbaa !20
  %44 = load i32, ptr %3, align 4, !tbaa !20
  %45 = load ptr, ptr %2, align 8, !tbaa !33
  %46 = getelementptr inbounds nuw %struct.XXH_NAMESPACEXXH32_state_s, ptr %45, i32 0, i32 3
  %47 = getelementptr inbounds [4 x i32], ptr %46, i64 0, i64 0
  %48 = load ptr, ptr %2, align 8, !tbaa !33
  %49 = getelementptr inbounds nuw %struct.XXH_NAMESPACEXXH32_state_s, ptr %48, i32 0, i32 4
  %50 = load i32, ptr %49, align 4, !tbaa !37
  %51 = zext i32 %50 to i64
  %52 = call i32 @XXH32_finalize(i32 noundef %44, ptr noundef %47, i64 noundef %51, i32 noundef 0)
  call void @llvm.lifetime.end.p0(i64 4, ptr %3) #14
  ret i32 %52
}

; Function Attrs: nounwind uwtable
define dso_local void @PHP_XXH32Final(ptr noundef %0, ptr noundef %1) #0 {
  %3 = alloca ptr, align 8
  %4 = alloca ptr, align 8
  store ptr %0, ptr %3, align 8, !tbaa !13
  store ptr %1, ptr %4, align 8, !tbaa !4
  %5 = load ptr, ptr %3, align 8, !tbaa !13
  %6 = load ptr, ptr %4, align 8, !tbaa !4
  %7 = getelementptr inbounds nuw %struct.PHP_XXH32_CTX, ptr %6, i32 0, i32 0
  %8 = call i32 @XXH_INLINE_XXH32_digest(ptr noundef %7)
  call void @XXH_INLINE_XXH32_canonicalFromHash(ptr noundef %5, i32 noundef %8)
  ret void
}