; Function Attrs: nofree norecurse nosync nounwind memory(argmem: readwrite) uwtable
define dso_local void @PHP_XXH32Final(ptr noundef writeonly captures(none) %0, ptr noundef readonly captures(none) %1) #1 {
  %3 = getelementptr inbounds nuw i8, ptr %1, i64 4
  %4 = load i32, ptr %3, align 4, !tbaa !11
  %.not.i = icmp eq i32 %4, 0
  br i1 %.not.i, label %21, label %5

5:                                                ; preds = %2
  %6 = getelementptr inbounds nuw i8, ptr %1, i64 8
  %7 = load i32, ptr %6, align 4, !tbaa !13
  %8 = tail call i32 @llvm.fshl.i32(i32 %7, i32 %7, i32 1)
  %9 = getelementptr inbounds nuw i8, ptr %1, i64 12
  %10 = load i32, ptr %9, align 4, !tbaa !13
  %11 = tail call i32 @llvm.fshl.i32(i32 %10, i32 %10, i32 7)
  %12 = add i32 %11, %8
  %13 = getelementptr inbounds nuw i8, ptr %1, i64 16
  %14 = load i32, ptr %13, align 4, !tbaa !13
  %15 = tail call i32 @llvm.fshl.i32(i32 %14, i32 %14, i32 12)
  %16 = add i32 %12, %15
  %17 = getelementptr inbounds nuw i8, ptr %1, i64 20
  %18 = load i32, ptr %17, align 4, !tbaa !13
  %19 = tail call i32 @llvm.fshl.i32(i32 %18, i32 %18, i32 18)
  %20 = add i32 %16, %19
  br label %25

21:                                               ; preds = %2
  %22 = getelementptr inbounds nuw i8, ptr %1, i64 16
  %23 = load i32, ptr %22, align 4, !tbaa !13
  %24 = add i32 %23, 374761393
  br label %25

25:                                               ; preds = %21, %5
  %.0.i = phi i32 [ %20, %5 ], [ %24, %21 ]
  %26 = load i32, ptr %1, align 4, !tbaa !8
  %27 = add i32 %26, %.0.i
  %28 = getelementptr inbounds nuw i8, ptr %1, i64 24
  %29 = getelementptr inbounds nuw i8, ptr %1, i64 40
  %30 = load i32, ptr %29, align 4, !tbaa !12
  %31 = and i32 %30, 15
  %32 = zext nneg i32 %31 to i64
  %33 = icmp samesign ugt i32 %31, 3
  br i1 %33, label %.lr.ph.i.i, label %.preheader.i.i

.preheader.i.i:                                   ; preds = %.lr.ph.i.i, %25
  %.016.lcssa.i.i = phi ptr [ %28, %25 ], [ %37, %.lr.ph.i.i ]
  %.014.lcssa.i.i = phi i64 [ %32, %25 ], [ %40, %.lr.ph.i.i ]
  %.0.lcssa.i.i = phi i32 [ %27, %25 ], [ %39, %.lr.ph.i.i ]
  %.not23.i.i = icmp eq i64 %.014.lcssa.i.i, 0
  br i1 %.not23.i.i, label %XXH_INLINE_XXH32_digest.exit, label %.lr.ph27.i.i

.lr.ph.i.i:                                       ; preds = %25, %.lr.ph.i.i
  %.020.i.i = phi i32 [ %39, %.lr.ph.i.i ], [ %27, %25 ]
  %.01419.i.i = phi i64 [ %40, %.lr.ph.i.i ], [ %32, %25 ]
  %.01618.i.i = phi ptr [ %37, %.lr.ph.i.i ], [ %28, %25 ]
  %34 = load i32, ptr %.01618.i.i, align 4, !tbaa !13
  %35 = mul i32 %34, -1028477379
  %36 = add i32 %35, %.020.i.i
  %37 = getelementptr inbounds nuw i8, ptr %.01618.i.i, i64 4
  %38 = tail call i32 @llvm.fshl.i32(i32 %36, i32 %36, i32 17)
  %39 = mul i32 %38, 668265263
  %40 = add nsw i64 %.01419.i.i, -4
  %41 = icmp ugt i64 %40, 3
  br i1 %41, label %.lr.ph.i.i, label %.preheader.i.i

.lr.ph27.i.i:                                     ; preds = %.preheader.i.i, %.lr.ph27.i.i
  %.126.i.i = phi i32 [ %48, %.lr.ph27.i.i ], [ %.0.lcssa.i.i, %.preheader.i.i ]
  %.11525.i.i = phi i64 [ %49, %.lr.ph27.i.i ], [ %.014.lcssa.i.i, %.preheader.i.i ]
  %.11724.i.i = phi ptr [ %42, %.lr.ph27.i.i ], [ %.016.lcssa.i.i, %.preheader.i.i ]
  %42 = getelementptr inbounds nuw i8, ptr %.11724.i.i, i64 1
  %43 = load i8, ptr %.11724.i.i, align 1, !tbaa !4
  %44 = zext i8 %43 to i32
  %45 = mul i32 %44, 374761393
  %46 = add i32 %45, %.126.i.i
  %47 = tail call i32 @llvm.fshl.i32(i32 %46, i32 %46, i32 11)
  %48 = mul i32 %47, -1640531535
  %49 = add nsw i64 %.11525.i.i, -1
  %.not.i.i = icmp eq i64 %49, 0
  br i1 %.not.i.i, label %XXH_INLINE_XXH32_digest.exit, label %.lr.ph27.i.i

XXH_INLINE_XXH32_digest.exit:                     ; preds = %.lr.ph27.i.i, %.preheader.i.i
  %.1.lcssa.i.i = phi i32 [ %.0.lcssa.i.i, %.preheader.i.i ], [ %48, %.lr.ph27.i.i ]
  %50 = lshr i32 %.1.lcssa.i.i, 15
  %51 = xor i32 %50, %.1.lcssa.i.i
  %52 = mul i32 %51, -2048144777
  %53 = lshr i32 %52, 13
  %54 = xor i32 %53, %52
  %55 = mul i32 %54, -1028477379
  %56 = lshr i32 %55, 16
  %57 = xor i32 %56, %55
  %58 = tail call noundef i32 @llvm.bswap.i32(i32 %57)
  store i32 %58, ptr %0, align 1
  ret void
}